target datalayout = "e-m:e-p270:32:32-p271:32:32-p272:64:64-i64:64-i128:128-f80:128-n8:16:32:64-S128"
target triple = "x86_64-pc-linux-gnu"

; Function Attrs: alwaysinline nounwind willreturn memory(none) uwtable
define internal zeroext i8 @av_clip_uint8_c(i32 noundef %0) #3 {
  %2 = alloca i8, align 1
  %3 = alloca i32, align 4
  store i32 %0, ptr %3, align 4, !tbaa !9
  %4 = load i32, ptr %3, align 4, !tbaa !9
  %5 = and i32 %4, -256
  %6 = icmp ne i32 %5, 0
  br i1 %6, label %7, label %12

7:                                                ; preds = %1
  %8 = load i32, ptr %3, align 4, !tbaa !9
  %9 = xor i32 %8, -1
  %10 = ashr i32 %9, 31
  %11 = trunc i32 %10 to i8
  store i8 %11, ptr %2, align 1
  br label %15

12:                                               ; preds = %1
  %13 = load i32, ptr %3, align 4, !tbaa !9
  %14 = trunc i32 %13 to i8
  store i8 %14, ptr %2, align 1
  br label %15

15:                                               ; preds = %12, %7
  %16 = load i8, ptr %2, align 1
  ret i8 %16
}

; Function Attrs: nounwind uwtable
define internal void @put_uni_chroma_h_8(ptr noundef %0, i64 noundef %1, ptr noundef %2, i64 noundef %3, i32 noundef %4, ptr noundef %5, ptr noundef %6, i32 noundef %7) #0 {
  %9 = alloca ptr, align 8
  %10 = alloca i64, align 8
  %11 = alloca ptr, align 8
  %12 = alloca i64, align 8
  %13 = alloca i32, align 4
  %14 = alloca ptr, align 8
  %15 = alloca ptr, align 8
  %16 = alloca i32, align 4
  %17 = alloca ptr, align 8
  %18 = alloca ptr, align 8
  %19 = alloca i64, align 8
  %20 = alloca i64, align 8
  %21 = alloca ptr, align 8
  %22 = alloca i32, align 4
  %23 = alloca i32, align 4
  %24 = alloca i32, align 4
  %25 = alloca i32, align 4
  %26 = alloca i32, align 4
  store ptr %0, ptr %9, align 8, !tbaa !144
  store i64 %1, ptr %10, align 8, !tbaa !146
  store ptr %2, ptr %11, align 8, !tbaa !144
  store i64 %3, ptr %12, align 8, !tbaa !146
  store i32 %4, ptr %13, align 4, !tbaa !9
  store ptr %5, ptr %14, align 8, !tbaa !144
  store ptr %6, ptr %15, align 8, !tbaa !144
  store i32 %7, ptr %16, align 4, !tbaa !9
  call void @llvm.lifetime.start.p0(i64 8, ptr %17) #8
  %27 = load ptr, ptr %11, align 8, !tbaa !144
  store ptr %27, ptr %17, align 8, !tbaa !144
  call void @llvm.lifetime.start.p0(i64 8, ptr %18) #8
  %28 = load ptr, ptr %9, align 8, !tbaa !144
  store ptr %28, ptr %18, align 8, !tbaa !144
  call void @llvm.lifetime.start.p0(i64 8, ptr %19) #8
  %29 = load i64, ptr %12, align 8, !tbaa !146
  %30 = udiv i64 %29, 1
  store i64 %30, ptr %19, align 8, !tbaa !146
  call void @llvm.lifetime.start.p0(i64 8, ptr %20) #8
  %31 = load i64, ptr %10, align 8, !tbaa !146
  %32 = udiv i64 %31, 1
  store i64 %32, ptr %20, align 8, !tbaa !146
  call void @llvm.lifetime.start.p0(i64 8, ptr %21) #8
  %33 = load ptr, ptr %14, align 8, !tbaa !144
  store ptr %33, ptr %21, align 8, !tbaa !144
  call void @llvm.lifetime.start.p0(i64 4, ptr %22) #8
  store i32 6, ptr %22, align 4, !tbaa !9
  call void @llvm.lifetime.start.p0(i64 4, ptr %23) #8
  store i32 32, ptr %23, align 4, !tbaa !9
  call void @llvm.lifetime.start.p0(i64 4, ptr %24) #8
  store i32 0, ptr %24, align 4, !tbaa !9
  br label %34

34:                                               ; preds = %114, %8
  %35 = load i32, ptr %24, align 4, !tbaa !9
  %36 = load i32, ptr %13, align 4, !tbaa !9
  %37 = icmp slt i32 %35, %36
  br i1 %37, label %39, label %38

38:                                               ; preds = %34
  store i32 2, ptr %25, align 4
  call void @llvm.lifetime.end.p0(i64 4, ptr %24) #8
  br label %117

39:                                               ; preds = %34
  call void @llvm.lifetime.start.p0(i64 4, ptr %26) #8
  store i32 0, ptr %26, align 4, !tbaa !9
  br label %40

40:                                               ; preds = %104, %39
  %41 = load i32, ptr %26, align 4, !tbaa !9
  %42 = load i32, ptr %16, align 4, !tbaa !9
  %43 = icmp slt i32 %41, %42
  br i1 %43, label %45, label %44

44:                                               ; preds = %40
  store i32 5, ptr %25, align 4
  call void @llvm.lifetime.end.p0(i64 4, ptr %26) #8
  br label %107

45:                                               ; preds = %40
  %46 = load ptr, ptr %21, align 8, !tbaa !144
  %47 = getelementptr inbounds i8, ptr %46, i64 0
  %48 = load i8, ptr %47, align 1, !tbaa !152
  %49 = sext i8 %48 to i32
  %50 = load ptr, ptr %17, align 8, !tbaa !144
  %51 = load i32, ptr %26, align 4, !tbaa !9
  %52 = sub nsw i32 %51, 1
  %53 = sext i32 %52 to i64
  %54 = getelementptr inbounds i8, ptr %50, i64 %53
  %55 = load i8, ptr %54, align 1, !tbaa !152
  %56 = zext i8 %55 to i32
  %57 = mul nsw i32 %49, %56
  %58 = load ptr, ptr %21, align 8, !tbaa !144
  %59 = getelementptr inbounds i8, ptr %58, i64 1
  %60 = load i8, ptr %59, align 1, !tbaa !152
  %61 = sext i8 %60 to i32
  %62 = load ptr, ptr %17, align 8, !tbaa !144
  %63 = load i32, ptr %26, align 4, !tbaa !9
  %64 = sext i32 %63 to i64
  %65 = getelementptr inbounds i8, ptr %62, i64 %64
  %66 = load i8, ptr %65, align 1, !tbaa !152
  %67 = zext i8 %66 to i32
  %68 = mul nsw i32 %61, %67
  %69 = add nsw i32 %57, %68
  %70 = load ptr, ptr %21, align 8, !tbaa !144
  %71 = getelementptr inbounds i8, ptr %70, i64 2
  %72 = load i8, ptr %71, align 1, !tbaa !152
  %73 = sext i8 %72 to i32
  %74 = load ptr, ptr %17, align 8, !tbaa !144
  %75 = load i32, ptr %26, align 4, !tbaa !9
  %76 = add nsw i32 %75, 1
  %77 = sext i32 %76 to i64
  %78 = getelementptr inbounds i8, ptr %74, i64 %77
  %79 = load i8, ptr %78, align 1, !tbaa !152
  %80 = zext i8 %79 to i32
  %81 = mul nsw i32 %73, %80
  %82 = add nsw i32 %69, %81
  %83 = load ptr, ptr %21, align 8, !tbaa !144
  %84 = getelementptr inbounds i8, ptr %83, i64 3
  %85 = load i8, ptr %84, align 1, !tbaa !152
  %86 = sext i8 %85 to i32
  %87 = load ptr, ptr %17, align 8, !tbaa !144
  %88 = load i32, ptr %26, align 4, !tbaa !9
  %89 = add nsw i32 %88, 2
  %90 = sext i32 %89 to i64
  %91 = getelementptr inbounds i8, ptr %87, i64 %90
  %92 = load i8, ptr %91, align 1, !tbaa !152
  %93 = zext i8 %92 to i32
  %94 = mul nsw i32 %86, %93
  %95 = add nsw i32 %82, %94
  %96 = ashr i32 %95, 0
  %97 = add nsw i32 %96, 32
  %98 = ashr i32 %97, 6
  %99 = call zeroext i8 @av_clip_uint8_c(i32 noundef %98) #9
  %100 = load ptr, ptr %18, align 8, !tbaa !144
  %101 = load i32, ptr %26, align 4, !tbaa !9
  %102 = sext i32 %101 to i64
  %103 = getelementptr inbounds i8, ptr %100, i64 %102
  store i8 %99, ptr %103, align 1, !tbaa !152
  br label %104

104:                                              ; preds = %45
  %105 = load i32, ptr %26, align 4, !tbaa !9
  %106 = add nsw i32 %105, 1
  store i32 %106, ptr %26, align 4, !tbaa !9
  br label %40, !llvm.loop !727

107:                                              ; preds = %44
  %108 = load i64, ptr %19, align 8, !tbaa !146
  %109 = load ptr, ptr %17, align 8, !tbaa !144
  %110 = getelementptr inbounds i8, ptr %109, i64 %108
  store ptr %110, ptr %17, align 8, !tbaa !144
  %111 = load i64, ptr %20, align 8, !tbaa !146
  %112 = load ptr, ptr %18, align 8, !tbaa !144
  %113 = getelementptr inbounds i8, ptr %112, i64 %111
  store ptr %113, ptr %18, align 8, !tbaa !144
  br label %114

114:                                              ; preds = %107
  %115 = load i32, ptr %24, align 4, !tbaa !9
  %116 = add nsw i32 %115, 1
  store i32 %116, ptr %24, align 4, !tbaa !9
  br label %34, !llvm.loop !728

117:                                              ; preds = %38
  call void @llvm.lifetime.end.p0(i64 4, ptr %23) #8
  call void @llvm.lifetime.end.p0(i64 4, ptr %22) #8
  call void @llvm.lifetime.end.p0(i64 8, ptr %21) #8
  call void @llvm.lifetime.end.p0(i64 8, ptr %20) #8
  call void @llvm.lifetime.end.p0(i64 8, ptr %19) #8
  call void @llvm.lifetime.end.p0(i64 8, ptr %18) #8
  call void @llvm.lifetime.end.p0(i64 8, ptr %17) #8
  ret void
}