; Function Attrs: nofree norecurse nosync nounwind memory(argmem: readwrite) uwtable
define internal void @put_uni_chroma_h_8(ptr noundef writeonly captures(none) %0, i64 noundef %1, ptr noundef readonly captures(none) %2, i64 noundef %3, i32 noundef %4, ptr noundef readonly captures(none) %5, ptr readnone captures(none) %6, i32 noundef %7) #2 {
  %9 = icmp sgt i32 %4, 0
  br i1 %9, label %.preheader.lr.ph, label %._crit_edge35

.preheader.lr.ph:                                 ; preds = %8
  %10 = icmp sgt i32 %7, 0
  %11 = getelementptr inbounds nuw i8, ptr %5, i64 1
  %12 = getelementptr inbounds nuw i8, ptr %5, i64 2
  %13 = getelementptr inbounds nuw i8, ptr %5, i64 3
  br i1 %10, label %.preheader.us.preheader, label %._crit_edge35

.preheader.us.preheader:                          ; preds = %.preheader.lr.ph
  %wide.trip.count = zext nneg i32 %7 to i64
  br label %.preheader.us

.preheader.us:                                    ; preds = %.preheader.us.preheader, %._crit_edge.us
  %.02834.us = phi i32 [ %49, %._crit_edge.us ], [ 0, %.preheader.us.preheader ]
  %.02933.us = phi ptr [ %47, %._crit_edge.us ], [ %2, %.preheader.us.preheader ]
  %.03032.us = phi ptr [ %48, %._crit_edge.us ], [ %0, %.preheader.us.preheader ]
  br label %14

14:                                               ; preds = %.preheader.us, %14
  %indvars.iv = phi i64 [ 0, %.preheader.us ], [ %indvars.iv.next, %14 ]
  %15 = load i8, ptr %5, align 1, !tbaa !128
  %16 = sext i8 %15 to i32
  %17 = getelementptr i8, ptr %.02933.us, i64 %indvars.iv
  %18 = getelementptr i8, ptr %17, i64 -1
  %19 = load i8, ptr %18, align 1, !tbaa !128
  %20 = zext i8 %19 to i32
  %21 = mul nsw i32 %20, %16
  %22 = load i8, ptr %11, align 1, !tbaa !128
  %23 = sext i8 %22 to i32
  %24 = load i8, ptr %17, align 1, !tbaa !128
  %25 = zext i8 %24 to i32
  %26 = mul nsw i32 %25, %23
  %27 = load i8, ptr %12, align 1, !tbaa !128
  %28 = sext i8 %27 to i32
  %indvars.iv.next = add nuw nsw i64 %indvars.iv, 1
  %29 = getelementptr inbounds nuw i8, ptr %.02933.us, i64 %indvars.iv.next
  %30 = load i8, ptr %29, align 1, !tbaa !128
  %31 = zext i8 %30 to i32
  %32 = mul nsw i32 %31, %28
  %33 = load i8, ptr %13, align 1, !tbaa !128
  %34 = sext i8 %33 to i32
  %35 = getelementptr inbounds nuw i8, ptr %17, i64 2
  %36 = load i8, ptr %35, align 1, !tbaa !128
  %37 = zext i8 %36 to i32
  %38 = mul nsw i32 %37, %34
  %39 = add nsw i32 %21, 32
  %40 = add nsw i32 %39, %26
  %41 = add nsw i32 %40, %32
  %42 = add nsw i32 %41, %38
  %43 = ashr i32 %42, 6
  %.not.i.us = icmp ult i32 %43, 256
  %isnotneg.i.us = icmp sgt i32 %43, -1
  %44 = sext i1 %isnotneg.i.us to i8
  %45 = trunc nuw i32 %43 to i8
  %.0.i.us = select i1 %.not.i.us, i8 %45, i8 %44
  %46 = getelementptr inbounds nuw i8, ptr %.03032.us, i64 %indvars.iv
  store i8 %.0.i.us, ptr %46, align 1, !tbaa !128
  %exitcond.not = icmp eq i64 %indvars.iv.next, %wide.trip.count
  br i1 %exitcond.not, label %._crit_edge.us, label %14, !llvm.loop !690

._crit_edge.us:                                   ; preds = %14
  %47 = getelementptr inbounds i8, ptr %.02933.us, i64 %3
  %48 = getelementptr inbounds i8, ptr %.03032.us, i64 %1
  %49 = add nuw nsw i32 %.02834.us, 1
  %exitcond38.not = icmp eq i32 %49, %4
  br i1 %exitcond38.not, label %._crit_edge35, label %.preheader.us, !llvm.loop !691

._crit_edge35:                                    ; preds = %._crit_edge.us, %.preheader.lr.ph, %8
  ret void
}